target datalayout = "e-m:e-p270:32:32-p271:32:32-p272:64:64-i64:64-i128:128-f80:128-n8:16:32:64-S128"
target triple = "x86_64-pc-linux-gnu"

%struct.anon = type { i64, ptr }
%struct.AVClass = type { ptr, ptr, ptr, i32, i32, i32, i32, ptr, ptr, ptr, ptr, i32 }
%struct.AVOption = type { ptr, ptr, i32, i32, %union.anon, double, double, i32, ptr }
%union.anon = type { i64 }

; Function Attrs: nounwind uwtable
define internal ptr @opt_array_pelem(ptr noundef %0, ptr noundef %1, i32 noundef %2) #0 {
  %4 = alloca ptr, align 8
  %5 = alloca ptr, align 8
  %6 = alloca i32, align 4
  store ptr %0, ptr %4, align 8, !tbaa !8
  store ptr %1, ptr %5, align 8, !tbaa !4
  store i32 %2, ptr %6, align 4, !tbaa !20
  %7 = load ptr, ptr %5, align 8, !tbaa !4
  %8 = load i32, ptr %6, align 4, !tbaa !20
  %9 = zext i32 %8 to i64
  %10 = load ptr, ptr %4, align 8, !tbaa !8
  %11 = getelementptr inbounds nuw %struct.AVOption, ptr %10, i32 0, i32 3
  %12 = load i32, ptr %11, align 4, !tbaa !21
  %13 = and i32 %12, -65537
  %14 = zext i32 %13 to i64
  %15 = getelementptr inbounds nuw [21 x %struct.anon], ptr @opt_type_desc, i64 0, i64 %14
  %16 = getelementptr inbounds nuw %struct.anon, ptr %15, i32 0, i32 0
  %17 = load i64, ptr %16, align 16, !tbaa !38
  %18 = mul i64 %9, %17
  %19 = getelementptr inbounds nuw i8, ptr %7, i64 %18
  ret ptr %19
}

; Function Attrs: nounwind uwtable
define internal ptr @opt_array_pcount(ptr noundef %0) #0 {
  %2 = alloca ptr, align 8
  store ptr %0, ptr %2, align 8, !tbaa !4
  %3 = load ptr, ptr %2, align 8, !tbaa !4
  %4 = getelementptr inbounds ptr, ptr %3, i64 1
  ret ptr %4
}

; Function Attrs: nounwind uwtable
define internal i32 @opt_copy_array(ptr noundef %0, ptr noundef %1, ptr noundef %2, ptr noundef %3) #0 {
  %5 = alloca i32, align 4
  %6 = alloca ptr, align 8
  %7 = alloca ptr, align 8
  %8 = alloca ptr, align 8
  %9 = alloca ptr, align 8
  %10 = alloca i32, align 4
  %11 = alloca ptr, align 8
  %12 = alloca i32, align 4
  %13 = alloca i32, align 4
  %14 = alloca i32, align 4
  store ptr %0, ptr %6, align 8, !tbaa !4
  store ptr %1, ptr %7, align 8, !tbaa !8
  store ptr %2, ptr %8, align 8, !tbaa !22
  store ptr %3, ptr %9, align 8, !tbaa !22
  call void @llvm.lifetime.start.p0(i64 4, ptr %10) #11
  %15 = load ptr, ptr %9, align 8, !tbaa !22
  %16 = call ptr @opt_array_pcount(ptr noundef %15)
  %17 = load i32, ptr %16, align 4, !tbaa !20
  store i32 %17, ptr %10, align 4, !tbaa !20
  call void @llvm.lifetime.start.p0(i64 8, ptr %11) #11
  store ptr null, ptr %11, align 8, !tbaa !4
  call void @llvm.lifetime.start.p0(i64 4, ptr %12) #11
  %18 = load ptr, ptr %8, align 8, !tbaa !22
  %19 = load ptr, ptr %18, align 8, !tbaa !4
  %20 = load ptr, ptr %9, align 8, !tbaa !22
  %21 = load ptr, ptr %20, align 8, !tbaa !4
  %22 = icmp eq ptr %19, %21
  br i1 %22, label %23, label %27

23:                                               ; preds = %4
  %24 = load ptr, ptr %8, align 8, !tbaa !22
  store ptr null, ptr %24, align 8, !tbaa !4
  %25 = load ptr, ptr %8, align 8, !tbaa !22
  %26 = call ptr @opt_array_pcount(ptr noundef %25)
  store i32 0, ptr %26, align 4, !tbaa !20
  br label %27

27:                                               ; preds = %23, %4
  %28 = load ptr, ptr %7, align 8, !tbaa !8
  %29 = load ptr, ptr %8, align 8, !tbaa !22
  %30 = load ptr, ptr %8, align 8, !tbaa !22
  %31 = call ptr @opt_array_pcount(ptr noundef %30)
  call void @opt_free_array(ptr noundef %28, ptr noundef %29, ptr noundef %31)
  %32 = load i32, ptr %10, align 4, !tbaa !20
  %33 = zext i32 %32 to i64
  %34 = load ptr, ptr %7, align 8, !tbaa !8
  %35 = getelementptr inbounds nuw %struct.AVOption, ptr %34, i32 0, i32 3
  %36 = load i32, ptr %35, align 4, !tbaa !21
  %37 = and i32 %36, -65537
  %38 = zext i32 %37 to i64
  %39 = getelementptr inbounds nuw [21 x %struct.anon], ptr @opt_type_desc, i64 0, i64 %38
  %40 = getelementptr inbounds nuw %struct.anon, ptr %39, i32 0, i32 0
  %41 = load i64, ptr %40, align 16, !tbaa !38
  %42 = call noalias ptr @av_calloc(i64 noundef %33, i64 noundef %41)
  store ptr %42, ptr %11, align 8, !tbaa !4
  %43 = load ptr, ptr %11, align 8, !tbaa !4
  %44 = icmp ne ptr %43, null
  br i1 %44, label %46, label %45

45:                                               ; preds = %27
  store i32 -12, ptr %5, align 4
  store i32 1, ptr %13, align 4
  br label %85

46:                                               ; preds = %27
  call void @llvm.lifetime.start.p0(i64 4, ptr %14) #11
  store i32 0, ptr %14, align 4, !tbaa !20
  br label %47

47:                                               ; preds = %74, %46
  %48 = load i32, ptr %14, align 4, !tbaa !20
  %49 = load i32, ptr %10, align 4, !tbaa !20
  %50 = icmp ult i32 %48, %49
  br i1 %50, label %52, label %51

51:                                               ; preds = %47
  store i32 2, ptr %13, align 4
  br label %77

52:                                               ; preds = %47
  %53 = load ptr, ptr %6, align 8, !tbaa !4
  %54 = load ptr, ptr %7, align 8, !tbaa !8
  %55 = getelementptr inbounds nuw %struct.AVOption, ptr %54, i32 0, i32 3
  %56 = load i32, ptr %55, align 4, !tbaa !21
  %57 = and i32 %56, -65537
  %58 = load ptr, ptr %7, align 8, !tbaa !8
  %59 = load ptr, ptr %11, align 8, !tbaa !4
  %60 = load i32, ptr %14, align 4, !tbaa !20
  %61 = call ptr @opt_array_pelem(ptr noundef %58, ptr noundef %59, i32 noundef %60)
  %62 = load ptr, ptr %7, align 8, !tbaa !8
  %63 = load ptr, ptr %9, align 8, !tbaa !22
  %64 = load ptr, ptr %63, align 8, !tbaa !4
  %65 = load i32, ptr %14, align 4, !tbaa !20
  %66 = call ptr @opt_array_pelem(ptr noundef %62, ptr noundef %64, i32 noundef %65)
  %67 = call i32 @opt_copy_elem(ptr noundef %53, i32 noundef %57, ptr noundef %61, ptr noundef %66)
  store i32 %67, ptr %12, align 4, !tbaa !20
  %68 = load i32, ptr %12, align 4, !tbaa !20
  %69 = icmp slt i32 %68, 0
  br i1 %69, label %70, label %73

70:                                               ; preds = %52
  %71 = load ptr, ptr %7, align 8, !tbaa !8
  call void @opt_free_array(ptr noundef %71, ptr noundef %11, ptr noundef %10)
  %72 = load i32, ptr %12, align 4, !tbaa !20
  store i32 %72, ptr %5, align 4
  store i32 1, ptr %13, align 4
  br label %77

73:                                               ; preds = %52
  br label %74

74:                                               ; preds = %73
  %75 = load i32, ptr %14, align 4, !tbaa !20
  %76 = add i32 %75, 1
  store i32 %76, ptr %14, align 4, !tbaa !20
  br label %47, !llvm.loop !113

77:                                               ; preds = %70, %51
  call void @llvm.lifetime.end.p0(i64 4, ptr %14) #11
  %78 = load i32, ptr %13, align 4
  switch i32 %78, label %85 [
    i32 2, label %79
  ]

79:                                               ; preds = %77
  %80 = load ptr, ptr %11, align 8, !tbaa !4
  %81 = load ptr, ptr %8, align 8, !tbaa !22
  store ptr %80, ptr %81, align 8, !tbaa !4
  %82 = load i32, ptr %10, align 4, !tbaa !20
  %83 = load ptr, ptr %8, align 8, !tbaa !22
  %84 = call ptr @opt_array_pcount(ptr noundef %83)
  store i32 %82, ptr %84, align 4, !tbaa !20
  store i32 0, ptr %5, align 4
  store i32 1, ptr %13, align 4
  br label %85

85:                                               ; preds = %79, %77, %45
  call void @llvm.lifetime.end.p0(i64 4, ptr %12) #11
  call void @llvm.lifetime.end.p0(i64 8, ptr %11) #11
  call void @llvm.lifetime.end.p0(i64 4, ptr %10) #11
  %86 = load i32, ptr %5, align 4
  ret i32 %86
}

; Function Attrs: nounwind uwtable
define ptr @av_opt_next(ptr noundef %0, ptr noundef %1) #0 {
  %3 = alloca ptr, align 8
  %4 = alloca ptr, align 8
  %5 = alloca ptr, align 8
  %6 = alloca ptr, align 8
  %7 = alloca i32, align 4
  store ptr %0, ptr %4, align 8, !tbaa !4
  store ptr %1, ptr %5, align 8, !tbaa !8
  call void @llvm.lifetime.start.p0(i64 8, ptr %6) #11
  %8 = load ptr, ptr %4, align 8, !tbaa !4
  %9 = icmp ne ptr %8, null
  br i1 %9, label %11, label %10

10:                                               ; preds = %2
  store ptr null, ptr %3, align 8
  store i32 1, ptr %7, align 4
  br label %49

11:                                               ; preds = %2
  %12 = load ptr, ptr %4, align 8, !tbaa !4
  %13 = load ptr, ptr %12, align 8, !tbaa !10
  store ptr %13, ptr %6, align 8, !tbaa !10
  %14 = load ptr, ptr %5, align 8, !tbaa !8
  %15 = icmp ne ptr %14, null
  br i1 %15, label %36, label %16

16:                                               ; preds = %11
  %17 = load ptr, ptr %6, align 8, !tbaa !10
  %18 = icmp ne ptr %17, null
  br i1 %18, label %19, label %36

19:                                               ; preds = %16
  %20 = load ptr, ptr %6, align 8, !tbaa !10
  %21 = getelementptr inbounds nuw %struct.AVClass, ptr %20, i32 0, i32 2
  %22 = load ptr, ptr %21, align 8, !tbaa !12
  %23 = icmp ne ptr %22, null
  br i1 %23, label %24, label %36

24:                                               ; preds = %19
  %25 = load ptr, ptr %6, align 8, !tbaa !10
  %26 = getelementptr inbounds nuw %struct.AVClass, ptr %25, i32 0, i32 2
  %27 = load ptr, ptr %26, align 8, !tbaa !12
  %28 = getelementptr inbounds %struct.AVOption, ptr %27, i64 0
  %29 = getelementptr inbounds nuw %struct.AVOption, ptr %28, i32 0, i32 0
  %30 = load ptr, ptr %29, align 8, !tbaa !16
  %31 = icmp ne ptr %30, null
  br i1 %31, label %32, label %36

32:                                               ; preds = %24
  %33 = load ptr, ptr %6, align 8, !tbaa !10
  %34 = getelementptr inbounds nuw %struct.AVClass, ptr %33, i32 0, i32 2
  %35 = load ptr, ptr %34, align 8, !tbaa !12
  store ptr %35, ptr %3, align 8
  store i32 1, ptr %7, align 4
  br label %49

36:                                               ; preds = %24, %19, %16, %11
  %37 = load ptr, ptr %5, align 8, !tbaa !8
  %38 = icmp ne ptr %37, null
  br i1 %38, label %39, label %48

39:                                               ; preds = %36
  %40 = load ptr, ptr %5, align 8, !tbaa !8
  %41 = getelementptr inbounds %struct.AVOption, ptr %40, i64 1
  %42 = getelementptr inbounds nuw %struct.AVOption, ptr %41, i32 0, i32 0
  %43 = load ptr, ptr %42, align 8, !tbaa !16
  %44 = icmp ne ptr %43, null
  br i1 %44, label %45, label %48

45:                                               ; preds = %39
  %46 = load ptr, ptr %5, align 8, !tbaa !8
  %47 = getelementptr inbounds nuw %struct.AVOption, ptr %46, i32 1
  store ptr %47, ptr %5, align 8, !tbaa !8
  store ptr %47, ptr %3, align 8
  store i32 1, ptr %7, align 4
  br label %49

48:                                               ; preds = %39, %36
  store ptr null, ptr %3, align 8
  store i32 1, ptr %7, align 4
  br label %49

49:                                               ; preds = %48, %45, %32, %10
  call void @llvm.lifetime.end.p0(i64 8, ptr %6) #11
  %50 = load ptr, ptr %3, align 8
  ret ptr %50
}

; Function Attrs: nounwind uwtable
define i32 @av_opt_copy(ptr noundef %0, ptr noundef %1) #0 {
  %3 = alloca i32, align 4
  %4 = alloca ptr, align 8
  %5 = alloca ptr, align 8
  %6 = alloca ptr, align 8
  %7 = alloca ptr, align 8
  %8 = alloca i32, align 4
  %9 = alloca i32, align 4
  %10 = alloca ptr, align 8
  %11 = alloca ptr, align 8
  %12 = alloca i32, align 4
  store ptr %0, ptr %4, align 8, !tbaa !4
  store ptr %1, ptr %5, align 8, !tbaa !4
  call void @llvm.lifetime.start.p0(i64 8, ptr %6) #11
  store ptr null, ptr %6, align 8, !tbaa !8
  call void @llvm.lifetime.start.p0(i64 8, ptr %7) #11
  call void @llvm.lifetime.start.p0(i64 4, ptr %8) #11
  store i32 0, ptr %8, align 4, !tbaa !20
  %13 = load ptr, ptr %5, align 8, !tbaa !4
  %14 = icmp ne ptr %13, null
  br i1 %14, label %16, label %15

15:                                               ; preds = %2
  store i32 -22, ptr %3, align 4
  store i32 1, ptr %9, align 4
  br label %74

16:                                               ; preds = %2
  %17 = load ptr, ptr %5, align 8, !tbaa !4
  %18 = load ptr, ptr %17, align 8, !tbaa !10
  store ptr %18, ptr %7, align 8, !tbaa !10
  %19 = load ptr, ptr %7, align 8, !tbaa !10
  %20 = icmp ne ptr %19, null
  br i1 %20, label %21, label %26

21:                                               ; preds = %16
  %22 = load ptr, ptr %7, align 8, !tbaa !10
  %23 = load ptr, ptr %4, align 8, !tbaa !4
  %24 = load ptr, ptr %23, align 8, !tbaa !10
  %25 = icmp ne ptr %22, %24
  br i1 %25, label %26, label %27

26:                                               ; preds = %21, %16
  store i32 -22, ptr %3, align 4
  store i32 1, ptr %9, align 4
  br label %74

27:                                               ; preds = %21
  br label %28

28:                                               ; preds = %71, %27
  %29 = load ptr, ptr %5, align 8, !tbaa !4
  %30 = load ptr, ptr %6, align 8, !tbaa !8
  %31 = call ptr @av_opt_next(ptr noundef %29, ptr noundef %30)
  store ptr %31, ptr %6, align 8, !tbaa !8
  %32 = icmp ne ptr %31, null
  br i1 %32, label %33, label %72

33:                                               ; preds = %28
  call void @llvm.lifetime.start.p0(i64 8, ptr %10) #11
  %34 = load ptr, ptr %4, align 8, !tbaa !4
  %35 = load ptr, ptr %6, align 8, !tbaa !8
  %36 = getelementptr inbounds nuw %struct.AVOption, ptr %35, i32 0, i32 2
  %37 = load i32, ptr %36, align 8, !tbaa !34
  %38 = sext i32 %37 to i64
  %39 = getelementptr inbounds i8, ptr %34, i64 %38
  store ptr %39, ptr %10, align 8, !tbaa !4
  call void @llvm.lifetime.start.p0(i64 8, ptr %11) #11
  %40 = load ptr, ptr %5, align 8, !tbaa !4
  %41 = load ptr, ptr %6, align 8, !tbaa !8
  %42 = getelementptr inbounds nuw %struct.AVOption, ptr %41, i32 0, i32 2
  %43 = load i32, ptr %42, align 8, !tbaa !34
  %44 = sext i32 %43 to i64
  %45 = getelementptr inbounds i8, ptr %40, i64 %44
  store ptr %45, ptr %11, align 8, !tbaa !4
  call void @llvm.lifetime.start.p0(i64 4, ptr %12) #11
  %46 = load ptr, ptr %6, align 8, !tbaa !8
  %47 = getelementptr inbounds nuw %struct.AVOption, ptr %46, i32 0, i32 3
  %48 = load i32, ptr %47, align 4, !tbaa !21
  %49 = and i32 %48, 65536
  %50 = icmp ne i32 %49, 0
  br i1 %50, label %51, label %57

51:                                               ; preds = %33
  %52 = load ptr, ptr %4, align 8, !tbaa !4
  %53 = load ptr, ptr %6, align 8, !tbaa !8
  %54 = load ptr, ptr %10, align 8, !tbaa !4
  %55 = load ptr, ptr %11, align 8, !tbaa !4
  %56 = call i32 @opt_copy_array(ptr noundef %52, ptr noundef %53, ptr noundef %54, ptr noundef %55)
  br label %65

57:                                               ; preds = %33
  %58 = load ptr, ptr %4, align 8, !tbaa !4
  %59 = load ptr, ptr %6, align 8, !tbaa !8
  %60 = getelementptr inbounds nuw %struct.AVOption, ptr %59, i32 0, i32 3
  %61 = load i32, ptr %60, align 4, !tbaa !21
  %62 = load ptr, ptr %10, align 8, !tbaa !4
  %63 = load ptr, ptr %11, align 8, !tbaa !4
  %64 = call i32 @opt_copy_elem(ptr noundef %58, i32 noundef %61, ptr noundef %62, ptr noundef %63)
  br label %65

65:                                               ; preds = %57, %51
  %66 = phi i32 [ %56, %51 ], [ %64, %57 ]
  store i32 %66, ptr %12, align 4, !tbaa !20
  %67 = load i32, ptr %12, align 4, !tbaa !20
  %68 = icmp slt i32 %67, 0
  br i1 %68, label %69, label %71

69:                                               ; preds = %65
  %70 = load i32, ptr %12, align 4, !tbaa !20
  store i32 %70, ptr %8, align 4, !tbaa !20
  br label %71

71:                                               ; preds = %69, %65
  call void @llvm.lifetime.end.p0(i64 4, ptr %12) #11
  call void @llvm.lifetime.end.p0(i64 8, ptr %11) #11
  call void @llvm.lifetime.end.p0(i64 8, ptr %10) #11
  br label %28, !llvm.loop !112

72:                                               ; preds = %28
  %73 = load i32, ptr %8, align 4, !tbaa !20
  store i32 %73, ptr %3, align 4
  store i32 1, ptr %9, align 4
  br label %74

74:                                               ; preds = %72, %26, %15
  call void @llvm.lifetime.end.p0(i64 4, ptr %8) #11
  call void @llvm.lifetime.end.p0(i64 8, ptr %7) #11
  call void @llvm.lifetime.end.p0(i64 8, ptr %6) #11
  %75 = load i32, ptr %3, align 4
  ret i32 %75
}