; Function Attrs: nounwind uwtable
define range(i32 -2147483648, 1) i32 @av_opt_copy(ptr noundef %0, ptr noundef %1) local_unnamed_addr #2 {
  %3 = alloca ptr, align 8
  %.not = icmp eq ptr %1, null
  br i1 %.not, label %av_opt_next.exit, label %4

4:                                                ; preds = %2
  %5 = load ptr, ptr %1, align 8, !tbaa !4
  %.not29 = icmp eq ptr %5, null
  br i1 %.not29, label %av_opt_next.exit, label %6

6:                                                ; preds = %4
  %7 = load ptr, ptr %0, align 8, !tbaa !4
  %.not30 = icmp eq ptr %5, %7
  br i1 %.not30, label %.preheader, label %av_opt_next.exit

.preheader:                                       ; preds = %6, %71
  %8 = phi ptr [ %.pre, %71 ], [ %5, %6 ]
  %.024 = phi i32 [ %spec.select, %71 ], [ 0, %6 ]
  %.023 = phi ptr [ %.0.i.ph, %71 ], [ null, %6 ]
  %9 = icmp eq ptr %.023, null
  %10 = icmp ne ptr %8, null
  %or.cond.i = select i1 %9, i1 %10, i1 false
  br i1 %or.cond.i, label %11, label %16

11:                                               ; preds = %.preheader
  %12 = getelementptr inbounds nuw i8, ptr %8, i64 16
  %13 = load ptr, ptr %12, align 8, !tbaa !9
  %.not16.i = icmp eq ptr %13, null
  br i1 %.not16.i, label %av_opt_next.exit, label %14

14:                                               ; preds = %11
  %15 = load ptr, ptr %13, align 8, !tbaa !14
  %.not17.i = icmp eq ptr %15, null
  br i1 %.not17.i, label %av_opt_next.exit, label %20

16:                                               ; preds = %.preheader
  br i1 %9, label %av_opt_next.exit, label %17

17:                                               ; preds = %16
  %18 = getelementptr inbounds nuw i8, ptr %.023, i64 64
  %19 = load ptr, ptr %18, align 8, !tbaa !14
  %.not19.i = icmp eq ptr %19, null
  br i1 %.not19.i, label %av_opt_next.exit, label %20

20:                                               ; preds = %14, %17
  %.0.i.ph = phi ptr [ %18, %17 ], [ %13, %14 ]
  %21 = getelementptr inbounds nuw i8, ptr %.0.i.ph, i64 16
  %22 = load i32, ptr %21, align 8, !tbaa !28
  %23 = sext i32 %22 to i64
  %24 = getelementptr inbounds i8, ptr %0, i64 %23
  %25 = getelementptr inbounds i8, ptr %1, i64 %23
  %26 = getelementptr inbounds nuw i8, ptr %.0.i.ph, i64 20
  %27 = load i32, ptr %26, align 4, !tbaa !18
  %28 = and i32 %27, 65536
  %.not32 = icmp eq i32 %28, 0
  br i1 %.not32, label %69, label %29

29:                                               ; preds = %20
  %30 = getelementptr inbounds nuw i8, ptr %25, i64 8
  %31 = load i32, ptr %30, align 4, !tbaa !26
  call void @llvm.lifetime.start.p0(i64 8, ptr nonnull %3) #18
  %32 = load ptr, ptr %24, align 8, !tbaa !19
  %33 = load ptr, ptr %25, align 8, !tbaa !19
  %34 = icmp eq ptr %32, %33
  br i1 %34, label %35, label %37

35:                                               ; preds = %29
  store ptr null, ptr %24, align 8, !tbaa !19
  %36 = getelementptr inbounds nuw i8, ptr %24, i64 8
  store i32 0, ptr %36, align 4, !tbaa !26
  br label %37

37:                                               ; preds = %35, %29
  %38 = getelementptr inbounds nuw i8, ptr %24, i64 8
  call fastcc void @opt_free_array(ptr noundef nonnull readonly %.0.i.ph, ptr noundef nonnull %24, ptr noundef nonnull %38)
  %39 = zext i32 %31 to i64
  %40 = load i32, ptr %26, align 4, !tbaa !18
  %41 = and i32 %40, -65537
  %42 = zext i32 %41 to i64
  %43 = getelementptr inbounds nuw [21 x %struct.anon], ptr @opt_type_desc, i64 0, i64 %42
  %44 = load i64, ptr %43, align 16, !tbaa !30
  %45 = call noalias ptr @av_calloc(i64 noundef %39, i64 noundef %44) #18
  store ptr %45, ptr %3, align 8, !tbaa !19
  %.not.i33 = icmp eq ptr %45, null
  br i1 %.not.i33, label %opt_copy_array.exit, label %.preheader.i

.preheader.i:                                     ; preds = %37
  %.not2737.not.i = icmp eq i32 %31, 0
  br i1 %.not2737.not.i, label %.thread.i34, label %.lr.ph.i

46:                                               ; preds = %.lr.ph.i
  %indvars.iv.next.i = add nuw nsw i64 %indvars.iv.i, 1
  %exitcond.not.i = icmp eq i64 %indvars.iv.next.i, %39
  br i1 %exitcond.not.i, label %.thread.i34, label %.lr.ph.i, !llvm.loop !98

.lr.ph.i:                                         ; preds = %.preheader.i, %46
  %indvars.iv.i = phi i64 [ %indvars.iv.next.i, %46 ], [ 0, %.preheader.i ]
  %47 = load i32, ptr %26, align 4, !tbaa !18
  %48 = and i32 %47, -65537
  %49 = zext i32 %48 to i64
  %50 = getelementptr inbounds nuw [21 x %struct.anon], ptr @opt_type_desc, i64 0, i64 %49
  %51 = load i64, ptr %50, align 16, !tbaa !30
  %52 = mul i64 %51, %indvars.iv.i
  %53 = getelementptr inbounds nuw i8, ptr %45, i64 %52
  %54 = load ptr, ptr %25, align 8, !tbaa !19
  %55 = getelementptr inbounds nuw i8, ptr %54, i64 %52
  %56 = call fastcc i32 @opt_copy_elem(ptr noundef nonnull %0, i32 noundef %48, ptr noundef nonnull %53, ptr noundef %55)
  %57 = icmp slt i32 %56, 0
  br i1 %57, label %.lr.ph.i.i, label %46

.lr.ph.i.i:                                       ; preds = %.lr.ph.i, %opt_free_elem.exit.i.i
  %indvars.iv.i.i = phi i64 [ %indvars.iv.next.i.i, %opt_free_elem.exit.i.i ], [ 0, %.lr.ph.i ]
  %58 = load i32, ptr %26, align 4, !tbaa !18
  %59 = and i32 %58, -65537
  %60 = zext i32 %59 to i64
  %61 = getelementptr inbounds nuw [21 x %struct.anon], ptr @opt_type_desc, i64 0, i64 %60
  %62 = load i64, ptr %61, align 16, !tbaa !30
  %63 = mul i64 %62, %indvars.iv.i.i
  %64 = getelementptr inbounds nuw i8, ptr %45, i64 %63
  switch i32 %59, label %opt_free_elem.exit.i.i [
    i32 6, label %65
    i32 8, label %65
    i32 9, label %66
    i32 19, label %67
  ]

65:                                               ; preds = %.lr.ph.i.i, %.lr.ph.i.i
  call void @av_freep(ptr noundef nonnull %64) #18
  br label %opt_free_elem.exit.i.i

66:                                               ; preds = %.lr.ph.i.i
  call void @av_dict_free(ptr noundef nonnull %64) #18
  br label %opt_free_elem.exit.i.i

67:                                               ; preds = %.lr.ph.i.i
  call void @av_channel_layout_uninit(ptr noundef nonnull %64) #18
  br label %opt_free_elem.exit.i.i

opt_free_elem.exit.i.i:                           ; preds = %67, %66, %65, %.lr.ph.i.i
  %indvars.iv.next.i.i = add nuw nsw i64 %indvars.iv.i.i, 1
  %exitcond41.not.i = icmp eq i64 %indvars.iv.next.i.i, %39
  br i1 %exitcond41.not.i, label %68, label %.lr.ph.i.i, !llvm.loop !38

68:                                               ; preds = %opt_free_elem.exit.i.i
  call void @av_freep(ptr noundef nonnull %3) #18
  br label %opt_copy_array.exit

.thread.i34:                                      ; preds = %46, %.preheader.i
  store ptr %45, ptr %24, align 8, !tbaa !19
  store i32 %31, ptr %38, align 4, !tbaa !26
  br label %opt_copy_array.exit

opt_copy_array.exit:                              ; preds = %37, %68, %.thread.i34
  %.025.i = phi i32 [ 0, %.thread.i34 ], [ %56, %68 ], [ -12, %37 ]
  call void @llvm.lifetime.end.p0(i64 8, ptr nonnull %3) #18
  br label %71

69:                                               ; preds = %20
  %70 = call fastcc i32 @opt_copy_elem(ptr noundef nonnull %0, i32 noundef %27, ptr noundef nonnull %24, ptr noundef nonnull %25)
  br label %71

71:                                               ; preds = %69, %opt_copy_array.exit
  %72 = phi i32 [ %.025.i, %opt_copy_array.exit ], [ %70, %69 ]
  %73 = icmp slt i32 %72, 0
  %spec.select = select i1 %73, i32 %72, i32 %.024
  %.pre = load ptr, ptr %1, align 8, !tbaa !4
  br label %.preheader, !llvm.loop !99

av_opt_next.exit:                                 ; preds = %17, %16, %14, %11, %4, %6, %2
  %.0 = phi i32 [ -22, %2 ], [ -22, %6 ], [ -22, %4 ], [ %.024, %11 ], [ %.024, %14 ], [ %.024, %16 ], [ %.024, %17 ]
  ret i32 %.0
}